target datalayout = "e-m:e-p270:32:32-p271:32:32-p272:64:64-i64:64-i128:128-f80:128-n8:16:32:64-S128"
target triple = "x86_64-pc-linux-gnu"

%struct.ex_callback_st = type { i64, ptr, i32, ptr, ptr, ptr }
%struct.ex_callback_entry = type { ptr, i32 }

; Function Attrs: nounwind uwtable
define internal i32 @ex_callback_compare(ptr noundef %0, ptr noundef %1) #0 {
  %3 = alloca i32, align 4
  %4 = alloca ptr, align 8
  %5 = alloca ptr, align 8
  %6 = alloca ptr, align 8
  %7 = alloca ptr, align 8
  %8 = alloca i32, align 4
  store ptr %0, ptr %4, align 8, !tbaa !22
  store ptr %1, ptr %5, align 8, !tbaa !22
  call void @llvm.lifetime.start.p0(i64 8, ptr %6) #4
  %9 = load ptr, ptr %4, align 8, !tbaa !22
  store ptr %9, ptr %6, align 8, !tbaa !48
  call void @llvm.lifetime.start.p0(i64 8, ptr %7) #4
  %10 = load ptr, ptr %5, align 8, !tbaa !22
  store ptr %10, ptr %7, align 8, !tbaa !48
  %11 = load ptr, ptr %6, align 8, !tbaa !48
  %12 = getelementptr inbounds nuw %struct.ex_callback_entry, ptr %11, i32 0, i32 0
  %13 = load ptr, ptr %12, align 8, !tbaa !50
  %14 = load ptr, ptr %7, align 8, !tbaa !48
  %15 = getelementptr inbounds nuw %struct.ex_callback_entry, ptr %14, i32 0, i32 0
  %16 = load ptr, ptr %15, align 8, !tbaa !50
  %17 = icmp eq ptr %13, %16
  br i1 %17, label %18, label %19

18:                                               ; preds = %2
  store i32 0, ptr %3, align 4
  store i32 1, ptr %8, align 4
  br label %57

19:                                               ; preds = %2
  %20 = load ptr, ptr %6, align 8, !tbaa !48
  %21 = getelementptr inbounds nuw %struct.ex_callback_entry, ptr %20, i32 0, i32 0
  %22 = load ptr, ptr %21, align 8, !tbaa !50
  %23 = icmp eq ptr %22, null
  br i1 %23, label %24, label %25

24:                                               ; preds = %19
  store i32 1, ptr %3, align 4
  store i32 1, ptr %8, align 4
  br label %57

25:                                               ; preds = %19
  %26 = load ptr, ptr %7, align 8, !tbaa !48
  %27 = getelementptr inbounds nuw %struct.ex_callback_entry, ptr %26, i32 0, i32 0
  %28 = load ptr, ptr %27, align 8, !tbaa !50
  %29 = icmp eq ptr %28, null
  br i1 %29, label %30, label %31

30:                                               ; preds = %25
  store i32 -1, ptr %3, align 4
  store i32 1, ptr %8, align 4
  br label %57

31:                                               ; preds = %25
  %32 = load ptr, ptr %6, align 8, !tbaa !48
  %33 = getelementptr inbounds nuw %struct.ex_callback_entry, ptr %32, i32 0, i32 0
  %34 = load ptr, ptr %33, align 8, !tbaa !50
  %35 = getelementptr inbounds nuw %struct.ex_callback_st, ptr %34, i32 0, i32 2
  %36 = load i32, ptr %35, align 8, !tbaa !35
  %37 = load ptr, ptr %7, align 8, !tbaa !48
  %38 = getelementptr inbounds nuw %struct.ex_callback_entry, ptr %37, i32 0, i32 0
  %39 = load ptr, ptr %38, align 8, !tbaa !50
  %40 = getelementptr inbounds nuw %struct.ex_callback_st, ptr %39, i32 0, i32 2
  %41 = load i32, ptr %40, align 8, !tbaa !35
  %42 = icmp eq i32 %36, %41
  br i1 %42, label %43, label %44

43:                                               ; preds = %31
  store i32 0, ptr %3, align 4
  store i32 1, ptr %8, align 4
  br label %57

44:                                               ; preds = %31
  %45 = load ptr, ptr %6, align 8, !tbaa !48
  %46 = getelementptr inbounds nuw %struct.ex_callback_entry, ptr %45, i32 0, i32 0
  %47 = load ptr, ptr %46, align 8, !tbaa !50
  %48 = getelementptr inbounds nuw %struct.ex_callback_st, ptr %47, i32 0, i32 2
  %49 = load i32, ptr %48, align 8, !tbaa !35
  %50 = load ptr, ptr %7, align 8, !tbaa !48
  %51 = getelementptr inbounds nuw %struct.ex_callback_entry, ptr %50, i32 0, i32 0
  %52 = load ptr, ptr %51, align 8, !tbaa !50
  %53 = getelementptr inbounds nuw %struct.ex_callback_st, ptr %52, i32 0, i32 2
  %54 = load i32, ptr %53, align 8, !tbaa !35
  %55 = icmp sgt i32 %49, %54
  %56 = select i1 %55, i32 -1, i32 1
  store i32 %56, ptr %3, align 4
  store i32 1, ptr %8, align 4
  br label %57

57:                                               ; preds = %44, %43, %30, %24, %18
  call void @llvm.lifetime.end.p0(i64 8, ptr %7) #4
  call void @llvm.lifetime.end.p0(i64 8, ptr %6) #4
  %58 = load i32, ptr %3, align 4
  ret i32 %58
}