; Function Attrs: mustprogress nofree norecurse nosync nounwind willreturn memory(read, inaccessiblemem: none) uwtable
define internal range(i32 -1, 2) i32 @ex_callback_compare(ptr noundef readonly captures(none) %0, ptr noundef readonly captures(none) %1) #5 {
  %3 = load ptr, ptr %0, align 8, !tbaa !35
  %4 = load ptr, ptr %1, align 8, !tbaa !35
  %5 = icmp eq ptr %3, %4
  br i1 %5, label %19, label %6

6:                                                ; preds = %2
  %7 = icmp eq ptr %3, null
  br i1 %7, label %19, label %8

8:                                                ; preds = %6
  %9 = icmp eq ptr %4, null
  br i1 %9, label %19, label %10

10:                                               ; preds = %8
  %11 = getelementptr inbounds nuw i8, ptr %3, i64 16
  %12 = load i32, ptr %11, align 8, !tbaa !21
  %13 = getelementptr inbounds nuw i8, ptr %4, i64 16
  %14 = load i32, ptr %13, align 8, !tbaa !21
  %15 = icmp eq i32 %12, %14
  br i1 %15, label %19, label %16

16:                                               ; preds = %10
  %17 = icmp sgt i32 %12, %14
  %18 = select i1 %17, i32 -1, i32 1
  br label %19

19:                                               ; preds = %10, %8, %6, %2, %16
  %.0 = phi i32 [ %18, %16 ], [ 0, %2 ], [ 1, %6 ], [ -1, %8 ], [ 0, %10 ]
  ret i32 %.0
}